(lp0
cnumpy.core.multiarray
scalar
p1
(cnumpy
dtype
p2
(S'f8'
p3
I0
I1
tp4
Rp5
(I3
S'<'
p6
NNNI-1
I-1
I0
tp7
bS'F\xd1L\xaa\xab\x98"@'
p8
tp9
Rp10
ag1
(g5
S'I~\xcaP\x88\xf2\xd5?'
p11
tp12
Rp13
ag1
(g5
S'8pv\xbe@\xe4\xd9?'
p14
tp15
Rp16
ag1
(g5
S'\x97\x1e@O\xe4\x92\xd7?'
p17
tp18
Rp19
ag1
(g5
S'Ni\xe7_\xc3\xe4\xd5?'
p20
tp21
Rp22
ag1
(g5
S'VI\x00ld"$@'
p23
tp24
Rp25
a.