(lp0
(lp1
cnumpy.core.multiarray
scalar
p2
(cnumpy
dtype
p3
(S'f8'
p4
I0
I1
tp5
Rp6
(I3
S'<'
p7
NNNI-1
I-1
I0
tp8
bS'O\xfc?\xf5\x0f\x13\xe2?'
p9
tp10
Rp11
ag2
(g6
S'\\\x9e\xff\xa1\x1b\xf7\xef?'
p12
tp13
Rp14
aag1
ag1
ag1
ag1
ag1
a.