(lp0
(lp1
cnumpy.core.multiarray
scalar
p2
(cnumpy
dtype
p3
(S'f8'
p4
I0
I1
tp5
Rp6
(I3
S'<'
p7
NNNI-1
I-1
I0
tp8
bS'\x87\x19\xc2$Q\x0c\xa5?'
p9
tp10
Rp11
ag2
(g6
S'\x86\xde \xe3Pu\xb2?'
p12
tp13
Rp14
aag1
ag1
a.