cnumpy.core.multiarray
_reconstruct
p1
(cnumpy
ndarray
p2
(I0
tS'b'
tRp3
(I1
(I1
I2
tcnumpy
dtype
p4
(S'f8'
I0
I1
tRp5
(I3
S'<'
NNNI-1
I-1
I0
tbI00
S"\x00\x00\x00\xb0\x0c\x81'@\xa0\xe2\xac\xa0.\x99\xd9?"
tb.