cnumpy.core.multiarray
_reconstruct
p1
(cnumpy
ndarray
p2
(I0
tS'b'
tRp3
(I1
(I1
I4
tcnumpy
dtype
p4
(S'f8'
I0
I1
tRp5
(I3
S'<'
NNNI-1
I-1
I0
tbI00
S'\x00\x00\x00\x10^\n/@5\xe7P\n\t\xf6\xef?\x82js\xe44}\xb0?J\xdb\xb54\xe3i\xaa?'
tb.