cnumpy.core.multiarray
_reconstruct
p1
(cnumpy
ndarray
p2
(I0
tS'b'
tRp3
(I1
(I1
I3
tcnumpy
dtype
p4
(S'f8'
I0
I1
tRp5
(I3
S'<'
NNNI-1
I-1
I0
tbI00
S"\x00\x00\x00PAU\x17@g\x1c\xe9j\x8f3\xbd?\xa3'\xc7\xddS\xe2\x90?"
tb.