cnumpy.core.multiarray
_reconstruct
p1
(cnumpy
ndarray
p2
(I0
tS'b'
tRp3
(I1
(I1
I3
tcnumpy
dtype
p4
(S'f8'
I0
I1
tRp5
(I3
S'<'
NNNI-1
I-1
I0
tbI00
S'\x00\x00\x00\x80lv5@0\xf0\xa7mX\x12\x07@OIB\x1f\x83\xae\x92?'
tb.