cnumpy.core.multiarray
_reconstruct
p1
(cnumpy
ndarray
p2
(I0
tS'b'
tRp3
(I1
(I1
I4
tcnumpy
dtype
p4
(S'f8'
I0
I1
tRp5
(I3
S'<'
NNNI-1
I-1
I0
tbI00
S'\x00\x00\x00\x10K\x1e2@\xed\x94\t6]\xc5\xd1?\x14\xf0F\x0boUp?\x90t2#QL\xfb?'
tb.