cnumpy.core.multiarray
_reconstruct
p1
(cnumpy
ndarray
p2
(I0
tS'b'
tRp3
(I1
(I1
I4
tcnumpy
dtype
p4
(S'f8'
I0
I1
tRp5
(I3
S'<'
NNNI-1
I-1
I0
tbI00
S'\x00\x00\x00\x90\xd3\x16(@~7r\x8fR\xb2e?qA\xfe\xafs+\x9e?kBt\xc3\x10.\x00@'
tb.