(dp1
I0
(dp2
I1
(dp3
S'A'
(lp4
S'25-34'
p5
aS'Female'
p6
aS'5'
aS'5'
aS'6'
aS'3'
aS'6'
aS'5'
aS''
aS''
asS'B'
(lp7
S'25-34'
p8
aS'Female'
p9
aS'6'
aS'6'
aS'5'
aS'2'
aS'6'
aS'2'
aS''
aS''
assI2
(dp10
S'A'
(lp11
S'25-34'
p12
aS'Female'
p13
aS'5'
aS'3'
aS'4'
aS'4'
aS'6'
aS'5'
aS'3'
aS'6'
asS'B'
(lp14
S'25-34'
p15
aS'Female'
p16
aS'5'
aS'3'
aS'5'
aS'4'
aS'5'
aS'5'
aS'5'
aS'5'
assI3
(dp17
S'A'
(lp18
S'25-34'
p19
aS'Female'
p20
aS'5'
aS'2'
aS'6'
aS'2'
aS'3'
aS'3'
aS''
aS''
asS'B'
(lp21
S'25-34'
p22
aS'Female'
p23
aS'6'
aS'2'
aS'5'
aS'2'
aS'2'
aS'4'
aS''
aS''
assI4
(dp24
S'A'
(lp25
S'25-34'
p26
aS'Female'
p27
aS'3'
aS'4'
aS'3'
aS'5'
aS'3'
aS'6'
aS'5'
aS'3'
asS'B'
(lp28
S'25-34'
p29
aS'Female'
p30
aS'5'
aS'2'
aS'5'
aS'2'
aS'3'
aS'5'
aS'5'
aS'3'
asssI1
(dp31
I1
(dp32
S'A'
(lp33
S'18-24'
p34
aS'Female'
p35
aS'5'
aS'3'
aS'3'
aS'5'
aS'3'
aS'3'
aS''
aS''
asS'B'
(lp36
S'18-24'
p37
aS'Female'
p38
aS'7'
aS'1'
aS'5'
aS'3'
aS'1'
aS'1'
aS''
aS''
assI2
(dp39
S'A'
(lp40
S'18-24'
p41
aS'Female'
p42
aS'1'
aS'7'
aS'1'
aS'7'
aS'7'
aS'5'
aS'1'
aS'7'
asS'B'
(lp43
S'18-24'
p44
aS'Female'
p45
aS'2'
aS'6'
aS'2'
aS'6'
aS'7'
aS'5'
aS'3'
aS'6'
assI3
(dp46
S'A'
(lp47
S'18-24'
p48
aS'Female'
p49
aS'7'
aS'1'
aS'6'
aS'2'
aS'1'
aS'1'
aS''
aS''
asS'B'
(lp50
S'18-24'
p51
aS'Female'
p52
aS'7'
aS'1'
aS'6'
aS'2'
aS'1'
aS'1'
aS''
aS''
assI4
(dp53
S'A'
(lp54
S'18-24'
p55
aS'Female'
p56
aS'1'
aS'7'
aS'1'
aS'7'
aS'5'
aS'3'
aS'1'
aS'7'
asS'B'
(lp57
S'18-24'
p58
aS'Female'
p59
aS'2'
aS'6'
aS'2'
aS'6'
aS'1'
aS'1'
aS'7'
aS'2'
asssI2
(dp60
I1
(dp61
S'A'
(lp62
S'18-24'
p63
aS'Male'
p64
aS'4'
aS'2'
aS'3'
aS'5'
aS'5'
aS'1'
aS''
aS''
asS'B'
(lp65
S'18-24'
p66
aS'Male'
p67
aS'6'
aS'2'
aS'5'
aS'5'
aS'3'
aS'1'
aS''
aS''
assI2
(dp68
S'A'
(lp69
S'18-24'
p70
aS'Male'
p71
aS'2'
aS'5'
aS'2'
aS'6'
aS'5'
aS'6'
aS'3'
aS'6'
asS'B'
(lp72
S'18-24'
p73
aS'Male'
p74
aS'3'
aS'4'
aS'4'
aS'4'
aS'5'
aS'1'
aS'3'
aS'4'
assI3
(dp75
S'A'
(lp76
S'18-24'
p77
aS'Male'
p78
aS'5'
aS'2'
aS'5'
aS'2'
aS'5'
aS'5'
aS''
aS''
asS'B'
(lp79
S'18-24'
p80
aS'Male'
p81
aS'7'
aS'2'
aS'7'
aS'3'
aS'2'
aS'2'
aS''
aS''
assI4
(dp82
S'A'
(lp83
S'18-24'
p84
aS'Male'
p85
aS'5'
aS'3'
aS'4'
aS'4'
aS'5'
aS'3'
aS'5'
aS'3'
asS'B'
(lp86
S'18-24'
p87
aS'Male'
p88
aS'4'
aS'5'
aS'2'
aS'6'
aS'5'
aS'7'
aS'2'
aS'6'
asssI3
(dp89
I1
(dp90
S'A'
(lp91
S'25-34'
p92
aS'Male'
p93
aS'5'
aS'3'
aS'3'
aS'5'
aS'5'
aS'5'
aS''
aS''
asS'B'
(lp94
S'25-34'
p95
aS'Male'
p96
aS'5'
aS'3'
aS'4'
aS'4'
aS'2'
aS'1'
aS''
aS''
assI2
(dp97
S'A'
(lp98
S'25-34'
p99
aS'Male'
p100
aS'1'
aS'7'
aS'2'
aS'6'
aS'5'
aS'5'
aS'3'
aS'4'
asS'B'
(lp101
S'25-34'
p102
aS'Male'
p103
aS'2'
aS'6'
aS'1'
aS'7'
aS'4'
aS'5'
aS'3'
aS'5'
assI3
(dp104
S'A'
(lp105
S'25-34'
p106
aS'Male'
p107
aS'5'
aS'3'
aS'3'
aS'5'
aS'4'
aS'3'
aS''
aS''
asS'B'
(lp108
S'25-34'
p109
aS'Male'
p110
aS'6'
aS'2'
aS'6'
aS'2'
aS'2'
aS'2'
aS'6'
aS'1'
assI4
(dp111
S'A'
(lp112
S'25-34'
p113
aS'Male'
p114
aS'1'
aS'6'
aS'2'
aS'6'
aS'3'
aS'4'
aS'3'
aS'4'
asS'B'
(lp115
S'25-34'
p116
aS'Male'
p117
aS'1'
aS'6'
aS'2'
aS'5'
aS'5'
aS'5'
aS'2'
aS'5'
asssI4
(dp118
I1
(dp119
S'A'
(lp120
S'25-34'
p121
aS'Female'
p122
aS'6'
aS'1'
aS'5'
aS'2'
aS'1'
aS'1'
aS''
aS''
asS'B'
(lp123
S'25-34'
p124
aS'Female'
p125
aS'6'
aS'1'
aS'5'
aS'2'
aS'1'
aS'1'
aS''
aS''
assI2
(dp126
S'A'
(lp127
S'25-34'
p128
aS'Female'
p129
aS'5'
aS'2'
aS'4'
aS'5'
aS'6'
aS'2'
aS'2'
aS'6'
asS'B'
(lp130
S'25-34'
p131
aS'Female'
p132
aS'3'
aS'6'
aS'1'
aS'7'
aS'1'
aS'1'
aS'7'
aS'1'
assI3
(dp133
S'A'
(lp134
S'25-34'
p135
aS'Female'
p136
aS'7'
aS'1'
aS'7'
aS'1'
aS'1'
aS'1'
aS''
aS''
asS'B'
(lp137
S'25-34'
p138
aS'Female'
p139
aS'7'
aS'1'
aS'7'
aS'1'
aS'1'
aS'1'
aS''
aS''
assI4
(dp140
S'A'
(lp141
S'25-34'
p142
aS'Female'
p143
aS'5'
aS'2'
aS'2'
aS'6'
aS'3'
aS'1'
aS'6'
aS'5'
asS'B'
(lp144
S'25-34'
p145
aS'Female'
p146
aS'5'
aS'3'
aS'2'
aS'6'
aS'1'
aS'1'
aS'7'
aS'1'
asssI5
(dp147
I1
(dp148
S'A'
(lp149
S'25-34'
p150
aS'Female'
p151
aS'6'
aS'2'
aS'6'
aS'2'
aS'3'
aS'6'
aS''
aS''
asS'B'
(lp152
S'25-34'
p153
aS'Female'
p154
aS'6'
aS'2'
aS'3'
aS'5'
aS'3'
aS'5'
aS''
aS''
assI2
(dp155
S'A'
(lp156
S'25-34'
p157
aS'Female'
p158
aS'6'
aS'3'
aS'6'
aS'3'
aS'2'
aS'3'
aS'6'
aS'2'
asS'B'
(lp159
S'25-34'
p160
aS'Female'
p161
aS'7'
aS'1'
aS'6'
aS'2'
aS'1'
aS'1'
aS'7'
aS'1'
assI3
(dp162
S'A'
(lp163
S'25-34'
p164
aS'Female'
p165
aS'7'
aS'1'
aS'7'
aS'1'
aS'1'
aS'2'
aS''
aS''
asS'B'
(lp166
S'25-34'
p167
aS'Female'
p168
aS'7'
aS'1'
aS'7'
aS'1'
aS'1'
aS'1'
aS''
aS''
assI4
(dp169
S'A'
(lp170
S'25-34'
p171
aS'Female'
p172
aS'1'
aS'7'
aS'1'
aS'7'
aS'2'
aS'2'
aS'6'
aS'2'
asS'B'
(lp173
S'25-34'
p174
aS'Female'
p175
aS'1'
aS'7'
aS'1'
aS'7'
aS'2'
aS'2'
aS'6'
aS'1'
asssI6
(dp176
I1
(dp177
S'A'
(lp178
S'25-34'
p179
aS'Female'
p180
aS'4'
aS'4'
aS'5'
aS'5'
aS'4'
aS'5'
aS''
aS''
asS'B'
(lp181
S'25-34'
p182
aS'Female'
p183
aS'3'
aS'3'
aS'5'
aS'4'
aS'4'
aS'5'
aS''
aS''
assI2
(dp184
S'A'
(lp185
S'25-34'
p186
aS'Female'
p187
aS'2'
aS'6'
aS'2'
aS'6'
aS'6'
aS'7'
aS'3'
aS'5'
asS'B'
(lp188
S'25-34'
p189
aS'Female'
p190
aS'5'
aS'3'
aS'5'
aS'3'
aS'1'
aS'1'
aS'7'
aS'1'
assI3
(dp191
S'A'
(lp192
S'25-34'
p193
aS'Female'
p194
aS'7'
aS'1'
aS'7'
aS'1'
aS'3'
aS'1'
aS''
aS''
asS'B'
(lp195
S'25-34'
p196
aS'Female'
p197
aS'7'
aS'1'
aS'7'
aS'1'
aS'2'
aS'1'
aS''
aS''
assI4
(dp198
S'A'
(lp199
S'25-34'
p200
aS'Female'
p201
aS'1'
aS'7'
aS'1'
aS'7'
aS'7'
aS'7'
aS'2'
aS'6'
asS'B'
(lp202
S'25-34'
p203
aS'Female'
p204
aS'2'
aS'6'
aS'1'
aS'7'
aS'5'
aS'5'
aS'4'
aS'4'
asssI7
(dp205
I1
(dp206
S'A'
(lp207
S'18-24'
p208
aS'Male'
p209
aS'4'
aS'3'
aS'2'
aS'5'
aS'2'
aS'2'
aS''
aS''
asS'B'
(lp210
S'18-24'
p211
aS'Male'
p212
aS'5'
aS'1'
aS'5'
aS'3'
aS'3'
aS'1'
aS''
aS''
assI2
(dp213
S'A'
(lp214
S'18-24'
p215
aS'Male'
p216
aS'3'
aS'4'
aS'2'
aS'6'
aS'7'
aS'4'
aS'2'
aS'6'
asS'B'
(lp217
S'18-24'
p218
aS'Male'
p219
aS'3'
aS'3'
aS'3'
aS'5'
aS'4'
aS'3'
aS'6'
aS'2'
assI3
(dp220
S'A'
(lp221
S'18-24'
p222
aS'Male'
p223
aS'5'
aS'2'
aS'2'
aS'6'
aS'1'
aS'1'
aS''
aS''
asS'B'
(lp224
S'18-24'
p225
aS'Male'
p226
aS'6'
aS'2'
aS'5'
aS'3'
aS'1'
aS'1'
aS''
aS''
assI4
(dp227
S'A'
(lp228
S'18-24'
p229
aS'Male'
p230
aS'2'
aS'6'
aS'2'
aS'6'
aS'7'
aS'4'
aS'1'
aS'7'
asS'B'
(lp231
S'18-24'
p232
aS'Male'
p233
aS'3'
aS'4'
aS'3'
aS'5'
aS'7'
aS'4'
aS'2'
aS'6'
asssI8
(dp234
I1
(dp235
S'A'
(lp236
S'25-34'
p237
aS'Male'
p238
aS'6'
aS'2'
aS'5'
aS'2'
aS'2'
aS'2'
aS''
aS''
asS'B'
(lp239
S'25-34'
p240
aS'Male'
p241
aS'4'
aS'2'
aS'4'
aS'3'
aS'3'
aS'1'
aS''
aS''
assI2
(dp242
S'A'
(lp243
S'25-34'
p244
aS'Male'
p245
aS'2'
aS'5'
aS'2'
aS'5'
aS'5'
aS'5'
aS'2'
aS'5'
asS'B'
(lp246
S'25-34'
p247
aS'Male'
p248
aS'2'
aS'5'
aS'2'
aS'5'
aS'4'
aS'3'
aS'2'
aS'6'
assI3
(dp249
S'A'
(lp250
S'25-34'
p251
aS'Male'
p252
aS'5'
aS'2'
aS'4'
aS'3'
aS'3'
aS'2'
aS''
aS''
asS'B'
(lp253
S'25-34'
p254
aS'Male'
p255
aS'3'
aS'3'
aS'4'
aS'3'
aS'5'
aS'3'
aS''
aS''
assI4
(dp256
S'A'
(lp257
S'25-34'
p258
aS'Male'
p259
aS'2'
aS'3'
aS'2'
aS'5'
aS'5'
aS'3'
aS'3'
aS'4'
asS'B'
(lp260
S'25-34'
p261
aS'Male'
p262
aS'1'
aS'7'
aS'2'
aS'6'
aS'3'
aS'2'
aS'4'
aS'3'
asssI9
(dp263
I1
(dp264
S'A'
(lp265
S'18-24'
p266
aS'Male'
p267
aS'6'
aS'2'
aS'6'
aS'2'
aS'2'
aS'1'
aS''
aS''
asS'B'
(lp268
S'18-24'
p269
aS'Male'
p270
aS'5'
aS'3'
aS'5'
aS'3'
aS'4'
aS'2'
aS''
aS''
assI2
(dp271
S'A'
(lp272
S'18-24'
p273
aS'Male'
p274
aS'3'
aS'3'
aS'3'
aS'5'
aS'5'
aS'4'
aS'3'
aS'5'
asS'B'
(lp275
S'18-24'
p276
aS'Male'
p277
aS'3'
aS'5'
aS'1'
aS'7'
aS'5'
aS'3'
aS'5'
aS'3'
assI3
(dp278
S'A'
(lp279
S'18-24'
p280
aS'Male'
p281
aS'7'
aS'1'
aS'6'
aS'2'
aS'1'
aS'3'
aS'7'
aS'1'
asS'B'
(lp282
S'18-24'
p283
aS'Male'
p284
aS'6'
aS'2'
aS'5'
aS'2'
aS'4'
aS'3'
aS''
aS''
assI4
(dp285
S'A'
(lp286
S'18-24'
p287
aS'Male'
p288
aS'2'
aS'3'
aS'2'
aS'6'
aS'6'
aS'5'
aS'2'
aS'5'
asS'B'
(lp289
S'18-24'
p290
aS'Male'
p291
aS'6'
aS'2'
aS'2'
aS'6'
aS'3'
aS'3'
aS'6'
aS'2'
asssI10
(dp292
I1
(dp293
S'A'
(lp294
S'18-24'
p295
aS'Male'
p296
aS'7'
aS'1'
aS'5'
aS'2'
aS'2'
aS'1'
aS'4'
aS''
asS'B'
(lp297
S'18-24'
p298
aS'Male'
p299
aS'7'
aS'2'
aS'6'
aS'2'
aS'1'
aS'2'
aS''
aS''
assI2
(dp300
S'A'
(lp301
S'18-24'
p302
aS'Male'
p303
aS'5'
aS'3'
aS'5'
aS'3'
aS'1'
aS'1'
aS'1'
aS'5'
asS'B'
(lp304
S'18-24'
p305
aS'Male'
p306
aS'5'
aS'3'
aS'1'
aS'7'
aS'7'
aS'7'
aS'1'
aS'7'
assI3
(dp307
S'A'
(lp308
S'18-24'
p309
aS'Male'
p310
aS'7'
aS'1'
aS'7'
aS'1'
aS'1'
aS'1'
aS''
aS''
asS'B'
(lp311
S'18-24'
p312
aS'Male'
p313
aS'7'
aS'1'
aS'7'
aS'1'
aS'1'
aS'1'
aS''
aS''
assI4
(dp314
S'A'
(lp315
S'18-24'
p316
aS'Male'
p317
aS'5'
aS'2'
aS'1'
aS'7'
aS'7'
aS'7'
aS'1'
aS'7'
asS'B'
(lp318
S'18-24'
p319
aS'Male'
p320
aS'5'
aS'1'
aS'1'
aS'1'
aS'7'
aS'7'
aS'1'
aS'7'
asssI11
(dp321
I1
(dp322
S'A'
(lp323
S'18-24'
p324
aS'Female'
p325
aS'6'
aS'2'
aS'6'
aS'2'
aS'2'
aS'2'
aS''
aS''
asS'B'
(lp326
S'18-24'
p327
aS'Female'
p328
aS'5'
aS'3'
aS'6'
aS'2'
aS'2'
aS'2'
aS''
aS''
assI2
(dp329
S'A'
(lp330
S'18-24'
p331
aS'Female'
p332
aS'1'
aS'7'
aS'1'
aS'7'
aS'7'
aS'2'
aS'2'
aS'6'
asS'B'
(lp333
S'18-24'
p334
aS'Female'
p335
aS'2'
aS'6'
aS'2'
aS'6'
aS'3'
aS'2'
aS'5'
aS'5'
assI3
(dp336
S'A'
(lp337
S'18-24'
p338
aS'Female'
p339
aS'6'
aS'1'
aS'6'
aS'1'
aS'2'
aS'1'
aS''
aS''
asS'B'
(lp340
S'18-24'
p341
aS'Female'
p342
aS'6'
aS'1'
aS'6'
aS'1'
aS'2'
aS'2'
aS''
aS''
assI4
(dp343
S'A'
(lp344
S'18-24'
p345
aS'Female'
p346
aS'1'
aS'7'
aS'1'
aS'7'
aS'7'
aS'2'
aS'2'
aS'6'
asS'B'
(lp347
S'18-24'
p348
aS'Female'
p349
aS'2'
aS'6'
aS'2'
aS'6'
aS'2'
aS'2'
aS'5'
aS'2'
asss.